; Function Attrs: nounwind uwtable
define ptr @l_Array_forIn_x27Unsafe_loop___at_Lean_getLocalHyps___spec__4___rarg___lambda__1___boxed(ptr noundef %0, ptr noundef %1, ptr noundef %2, ptr noundef %3, ptr noundef %4, ptr noundef %5, ptr noundef %6, ptr noundef %7, ptr noundef %8, ptr noundef %9) #2 {
  %11 = getelementptr i8, ptr %1, i64 8
  %.val17 = load i64, ptr %11, align 8, !tbaa !12
  %12 = ptrtoint ptr %1 to i64
  %13 = and i64 %12, 1
  %.not = icmp eq i64 %13, 0
  br i1 %.not, label %14, label %lean_dec.exit14

14:                                               ; preds = %10
  %15 = load i32, ptr %1, align 4, !tbaa !4
  %16 = icmp sgt i32 %15, 1
  br i1 %16, label %17, label %19, !prof !11

17:                                               ; preds = %14
  %18 = add nsw i32 %15, -1
  store i32 %18, ptr %1, align 4, !tbaa !4
  br label %lean_dec.exit14

19:                                               ; preds = %14
  %.not.i = icmp eq i32 %15, 0
  br i1 %.not.i, label %lean_dec.exit14, label %20

20:                                               ; preds = %19
  tail call void @lean_dec_ref_cold(ptr noundef nonnull %1) #8
  br label %lean_dec.exit14

lean_dec.exit14:                                  ; preds = %20, %19, %17, %10
  %21 = getelementptr i8, ptr %8, i64 8
  %.val = load i64, ptr %21, align 8, !tbaa !12
  %22 = ptrtoint ptr %8 to i64
  %23 = and i64 %22, 1
  %.not18 = icmp eq i64 %23, 0
  br i1 %.not18, label %24, label %lean_dec.exit

24:                                               ; preds = %lean_dec.exit14
  %25 = load i32, ptr %8, align 4, !tbaa !4
  %26 = icmp sgt i32 %25, 1
  br i1 %26, label %27, label %29, !prof !11

27:                                               ; preds = %24
  %28 = add nsw i32 %25, -1
  store i32 %28, ptr %8, align 4, !tbaa !4
  br label %lean_dec.exit

29:                                               ; preds = %24
  %.not.i15 = icmp eq i32 %25, 0
  br i1 %.not.i15, label %lean_dec.exit, label %30

30:                                               ; preds = %29
  tail call void @lean_dec_ref_cold(ptr noundef nonnull %8) #8
  br label %lean_dec.exit

lean_dec.exit:                                    ; preds = %30, %29, %27, %lean_dec.exit14
  %31 = tail call ptr @l_Array_forIn_x27Unsafe_loop___at_Lean_getLocalHyps___spec__4___rarg___lambda__1(ptr noundef %0, i64 noundef %.val17, ptr noundef %2, ptr noundef %3, ptr noundef %4, ptr noundef %5, ptr noundef %6, ptr noundef %7, i64 noundef %.val, ptr noundef %9)
  ret ptr %31
}